; ModuleID = '36/298.c'
source_filename = "36/298.c"
target datalayout = "e-m:e-p270:32:32-p271:32:32-p272:64:64-i64:64-f80:128-n8:16:32:64-S128"
target triple = "x86_64-pc-linux-gnu"

@.str = private unnamed_addr constant [4 x i8] c"NO\0A\00", align 1
@.str.1 = private unnamed_addr constant [5 x i8] c"YES\0A\00", align 1

; Function Attrs: noinline nounwind uwtable
define dso_local i32 @main() #0 {
  %1 = alloca i32, align 4
  %2 = alloca [5 x i8], align 1
  %3 = alloca [1000 x [1000 x i8]], align 16
  %4 = alloca i8, align 1
  %5 = alloca i32, align 4
  %6 = alloca i32, align 4
  %7 = alloca i32, align 4
  %8 = alloca i32, align 4
  store i32 0, i32* %1, align 4
  store i32 0, i32* %8, align 4
  %9 = getelementptr inbounds [5 x i8], [5 x i8]* %2, i64 0, i64 0
  %10 = call i32 (i8*, ...) bitcast (i32 (...)* @gets to i32 (i8*, ...)*)(i8* %9)
  %11 = getelementptr inbounds [5 x i8], [5 x i8]* %2, i64 0, i64 0
  %12 = call i64 @strlen(i8* %11) #3
  %13 = trunc i64 %12 to i32
  store i32 %13, i32* %5, align 4
  %14 = load i32, i32* %5, align 4
  %15 = srem i32 %14, 2
  %16 = icmp eq i32 %15, 0
  br i1 %16, label %17, label %19

17:                                               ; preds = %0
  %18 = call i32 (i8*, ...) @printf(i8* getelementptr inbounds ([4 x i8], [4 x i8]* @.str, i64 0, i64 0))
  br label %178

19:                                               ; preds = %0
  %20 = load i32, i32* %5, align 4
  %21 = sub nsw i32 %20, 1
  %22 = sdiv i32 %21, 2
  %23 = sext i32 %22 to i64
  %24 = getelementptr inbounds [5 x i8], [5 x i8]* %2, i64 0, i64 %23
  %25 = load i8, i8* %24, align 1
  %26 = sext i8 %25 to i32
  %27 = icmp ne i32 %26, 32
  br i1 %27, label %28, label %30

28:                                               ; preds = %19
  %29 = call i32 (i8*, ...) @printf(i8* getelementptr inbounds ([4 x i8], [4 x i8]* @.str, i64 0, i64 0))
  br label %85

30:                                               ; preds = %19
  store i32 0, i32* %6, align 4
  br label %31

31:                                               ; preds = %81, %30
  %32 = load i32, i32* %6, align 4
  %33 = icmp slt i32 %32, 2
  br i1 %33, label %34, label %84

34:                                               ; preds = %31
  store i32 0, i32* %7, align 4
  br label %35

35:                                               ; preds = %64, %34
  %36 = load i32, i32* %8, align 4
  %37 = sext i32 %36 to i64
  %38 = getelementptr inbounds [5 x i8], [5 x i8]* %2, i64 0, i64 %37
  %39 = load i8, i8* %38, align 1
  %40 = sext i8 %39 to i32
  %41 = icmp ne i32 %40, 32
  br i1 %41, label %42, label %67

42:                                               ; preds = %35
  %43 = load i32, i32* %8, align 4
  %44 = sext i32 %43 to i64
  %45 = getelementptr inbounds [5 x i8], [5 x i8]* %2, i64 0, i64 %44
  %46 = load i8, i8* %45, align 1
  %47 = sext i8 %46 to i32
  %48 = icmp ne i32 %47, 0
  br i1 %48, label %49, label %62

49:                                               ; preds = %42
  %50 = load i32, i32* %8, align 4
  %51 = sext i32 %50 to i64
  %52 = getelementptr inbounds [5 x i8], [5 x i8]* %2, i64 0, i64 %51
  %53 = load i8, i8* %52, align 1
  %54 = load i32, i32* %6, align 4
  %55 = sext i32 %54 to i64
  %56 = getelementptr inbounds [1000 x [1000 x i8]], [1000 x [1000 x i8]]* %3, i64 0, i64 %55
  %57 = load i32, i32* %7, align 4
  %58 = sext i32 %57 to i64
  %59 = getelementptr inbounds [1000 x i8], [1000 x i8]* %56, i64 0, i64 %58
  store i8 %53, i8* %59, align 1
  %60 = load i32, i32* %8, align 4
  %61 = add nsw i32 %60, 1
  store i32 %61, i32* %8, align 4
  br label %63

62:                                               ; preds = %42
  br label %67

63:                                               ; preds = %49
  br label %64

64:                                               ; preds = %63
  %65 = load i32, i32* %7, align 4
  %66 = add nsw i32 %65, 1
  store i32 %66, i32* %7, align 4
  br label %35

67:                                               ; preds = %62, %35
  %68 = load i32, i32* %6, align 4
  %69 = sext i32 %68 to i64
  %70 = getelementptr inbounds [1000 x [1000 x i8]], [1000 x [1000 x i8]]* %3, i64 0, i64 %69
  %71 = load i32, i32* %7, align 4
  %72 = sext i32 %71 to i64
  %73 = getelementptr inbounds [1000 x i8], [1000 x i8]* %70, i64 0, i64 %72
  store i8 0, i8* %73, align 1
  %74 = load i32, i32* %8, align 4
  %75 = sext i32 %74 to i64
  %76 = getelementptr inbounds [5 x i8], [5 x i8]* %2, i64 0, i64 %75
  store i8 0, i8* %76, align 1
  br i1 false, label %77, label %78

77:                                               ; preds = %67
  br label %84

78:                                               ; preds = %67
  %79 = load i32, i32* %8, align 4
  %80 = add nsw i32 %79, 1
  store i32 %80, i32* %8, align 4
  br label %81

81:                                               ; preds = %78
  %82 = load i32, i32* %6, align 4
  %83 = add nsw i32 %82, 1
  store i32 %83, i32* %6, align 4
  br label %31

84:                                               ; preds = %77, %31
  br label %85

85:                                               ; preds = %84, %28
  store i32 0, i32* %6, align 4
  br label %86

86:                                               ; preds = %163, %85
  %87 = load i32, i32* %6, align 4
  %88 = icmp slt i32 %87, 2
  br i1 %88, label %89, label %166

89:                                               ; preds = %86
  store i32 0, i32* %8, align 4
  br label %90

90:                                               ; preds = %159, %89
  %91 = load i32, i32* %8, align 4
  %92 = load i32, i32* %5, align 4
  %93 = sub nsw i32 %92, 3
  %94 = sdiv i32 %93, 2
  %95 = icmp slt i32 %91, %94
  br i1 %95, label %96, label %162

96:                                               ; preds = %90
  store i32 0, i32* %7, align 4
  br label %97

97:                                               ; preds = %155, %96
  %98 = load i32, i32* %7, align 4
  %99 = load i32, i32* %5, align 4
  %100 = sub nsw i32 %99, 3
  %101 = sdiv i32 %100, 2
  %102 = load i32, i32* %8, align 4
  %103 = sub nsw i32 %101, %102
  %104 = icmp slt i32 %98, %103
  br i1 %104, label %105, label %158

105:                                              ; preds = %97
  %106 = load i32, i32* %6, align 4
  %107 = sext i32 %106 to i64
  %108 = getelementptr inbounds [1000 x [1000 x i8]], [1000 x [1000 x i8]]* %3, i64 0, i64 %107
  %109 = load i32, i32* %7, align 4
  %110 = sext i32 %109 to i64
  %111 = getelementptr inbounds [1000 x i8], [1000 x i8]* %108, i64 0, i64 %110
  %112 = load i8, i8* %111, align 1
  %113 = sext i8 %112 to i32
  %114 = load i32, i32* %6, align 4
  %115 = sext i32 %114 to i64
  %116 = getelementptr inbounds [1000 x [1000 x i8]], [1000 x [1000 x i8]]* %3, i64 0, i64 %115
  %117 = load i32, i32* %7, align 4
  %118 = add nsw i32 %117, 1
  %119 = sext i32 %118 to i64
  %120 = getelementptr inbounds [1000 x i8], [1000 x i8]* %116, i64 0, i64 %119
  %121 = load i8, i8* %120, align 1
  %122 = sext i8 %121 to i32
  %123 = icmp sgt i32 %113, %122
  br i1 %123, label %124, label %154

124:                                              ; preds = %105
  %125 = load i32, i32* %6, align 4
  %126 = sext i32 %125 to i64
  %127 = getelementptr inbounds [1000 x [1000 x i8]], [1000 x [1000 x i8]]* %3, i64 0, i64 %126
  %128 = load i32, i32* %7, align 4
  %129 = sext i32 %128 to i64
  %130 = getelementptr inbounds [1000 x i8], [1000 x i8]* %127, i64 0, i64 %129
  %131 = load i8, i8* %130, align 1
  store i8 %131, i8* %4, align 1
  %132 = load i32, i32* %6, align 4
  %133 = sext i32 %132 to i64
  %134 = getelementptr inbounds [1000 x [1000 x i8]], [1000 x [1000 x i8]]* %3, i64 0, i64 %133
  %135 = load i32, i32* %7, align 4
  %136 = add nsw i32 %135, 1
  %137 = sext i32 %136 to i64
  %138 = getelementptr inbounds [1000 x i8], [1000 x i8]* %134, i64 0, i64 %137
  %139 = load i8, i8* %138, align 1
  %140 = load i32, i32* %6, align 4
  %141 = sext i32 %140 to i64
  %142 = getelementptr inbounds [1000 x [1000 x i8]], [1000 x [1000 x i8]]* %3, i64 0, i64 %141
  %143 = load i32, i32* %7, align 4
  %144 = sext i32 %143 to i64
  %145 = getelementptr inbounds [1000 x i8], [1000 x i8]* %142, i64 0, i64 %144
  store i8 %139, i8* %145, align 1
  %146 = load i8, i8* %4, align 1
  %147 = load i32, i32* %6, align 4
  %148 = sext i32 %147 to i64
  %149 = getelementptr inbounds [1000 x [1000 x i8]], [1000 x [1000 x i8]]* %3, i64 0, i64 %148
  %150 = load i32, i32* %7, align 4
  %151 = add nsw i32 %150, 1
  %152 = sext i32 %151 to i64
  %153 = getelementptr inbounds [1000 x i8], [1000 x i8]* %149, i64 0, i64 %152
  store i8 %146, i8* %153, align 1
  br label %154

154:                                              ; preds = %124, %105
  br label %155

155:                                              ; preds = %154
  %156 = load i32, i32* %7, align 4
  %157 = add nsw i32 %156, 1
  store i32 %157, i32* %7, align 4
  br label %97

158:                                              ; preds = %97
  br label %159

159:                                              ; preds = %158
  %160 = load i32, i32* %8, align 4
  %161 = add nsw i32 %160, 1
  store i32 %161, i32* %8, align 4
  br label %90

162:                                              ; preds = %90
  br label %163

163:                                              ; preds = %162
  %164 = load i32, i32* %6, align 4
  %165 = add nsw i32 %164, 1
  store i32 %165, i32* %6, align 4
  br label %86

166:                                              ; preds = %86
  %167 = getelementptr inbounds [1000 x [1000 x i8]], [1000 x [1000 x i8]]* %3, i64 0, i64 0
  %168 = getelementptr inbounds [1000 x i8], [1000 x i8]* %167, i64 0, i64 0
  %169 = getelementptr inbounds [1000 x [1000 x i8]], [1000 x [1000 x i8]]* %3, i64 0, i64 1
  %170 = getelementptr inbounds [1000 x i8], [1000 x i8]* %169, i64 0, i64 0
  %171 = call i32 @strcmp(i8* %168, i8* %170) #3
  %172 = icmp eq i32 %171, 0
  br i1 %172, label %173, label %175

173:                                              ; preds = %166
  %174 = call i32 (i8*, ...) @printf(i8* getelementptr inbounds ([5 x i8], [5 x i8]* @.str.1, i64 0, i64 0))
  br label %177

175:                                              ; preds = %166
  %176 = call i32 (i8*, ...) @printf(i8* getelementptr inbounds ([4 x i8], [4 x i8]* @.str, i64 0, i64 0))
  br label %177

177:                                              ; preds = %175, %173
  br label %178

178:                                              ; preds = %177, %17
  %179 = load i32, i32* %1, align 4
  ret i32 %179
}

declare dso_local i32 @gets(...) #1

; Function Attrs: nounwind readonly
declare dso_local i64 @strlen(i8*) #2

declare dso_local i32 @printf(i8*, ...) #1

; Function Attrs: nounwind readonly
declare dso_local i32 @strcmp(i8*, i8*) #2


!llvm.module.flags = !{!0}
!llvm.ident = !{!1}

!0 = !{i32 1, !"wchar_size", i32 4}
!1 = !{!"clang version 10.0.0-4ubuntu1 "}
